target datalayout = "e-m:e-p270:32:32-p271:32:32-p272:64:64-i64:64-i128:128-f80:128-n8:16:32:64-S128"
target triple = "x86_64-pc-linux-gnu"

%struct._generic_SUNMatrix = type { ptr, ptr, ptr }
%struct._SUNMatrixContent_Band = type { i64, i64, i64, i64, i64, i64, ptr, i64, ptr }

; Function Attrs: nounwind uwtable
define i32 @SUNMatSpace_Band(ptr noundef %0, ptr noundef %1, ptr noundef %2) #0 {
  %4 = alloca ptr, align 8
  %5 = alloca ptr, align 8
  %6 = alloca ptr, align 8
  %7 = alloca ptr, align 8
  store ptr %0, ptr %4, align 8, !tbaa !10
  store ptr %1, ptr %5, align 8, !tbaa !46
  store ptr %2, ptr %6, align 8, !tbaa !46
  call void @llvm.lifetime.start.p0(i64 8, ptr %7) #8
  %8 = load ptr, ptr %4, align 8, !tbaa !10
  %9 = getelementptr inbounds nuw %struct._generic_SUNMatrix, ptr %8, i32 0, i32 2
  %10 = load ptr, ptr %9, align 8, !tbaa !41
  store ptr %10, ptr %7, align 8, !tbaa !7
  %11 = load ptr, ptr %4, align 8, !tbaa !10
  %12 = getelementptr inbounds nuw %struct._generic_SUNMatrix, ptr %11, i32 0, i32 0
  %13 = load ptr, ptr %12, align 8, !tbaa !27
  %14 = getelementptr inbounds nuw %struct._SUNMatrixContent_Band, ptr %13, i32 0, i32 1
  %15 = load i64, ptr %14, align 8, !tbaa !32
  %16 = load ptr, ptr %4, align 8, !tbaa !10
  %17 = getelementptr inbounds nuw %struct._generic_SUNMatrix, ptr %16, i32 0, i32 0
  %18 = load ptr, ptr %17, align 8, !tbaa !27
  %19 = getelementptr inbounds nuw %struct._SUNMatrixContent_Band, ptr %18, i32 0, i32 5
  %20 = load i64, ptr %19, align 8, !tbaa !35
  %21 = load ptr, ptr %4, align 8, !tbaa !10
  %22 = getelementptr inbounds nuw %struct._generic_SUNMatrix, ptr %21, i32 0, i32 0
  %23 = load ptr, ptr %22, align 8, !tbaa !27
  %24 = getelementptr inbounds nuw %struct._SUNMatrixContent_Band, ptr %23, i32 0, i32 4
  %25 = load i64, ptr %24, align 8, !tbaa !34
  %26 = add nsw i64 %20, %25
  %27 = add nsw i64 %26, 1
  %28 = mul nsw i64 %15, %27
  %29 = load ptr, ptr %5, align 8, !tbaa !46
  store i64 %28, ptr %29, align 8, !tbaa !3
  %30 = load ptr, ptr %4, align 8, !tbaa !10
  %31 = getelementptr inbounds nuw %struct._generic_SUNMatrix, ptr %30, i32 0, i32 0
  %32 = load ptr, ptr %31, align 8, !tbaa !27
  %33 = getelementptr inbounds nuw %struct._SUNMatrixContent_Band, ptr %32, i32 0, i32 1
  %34 = load i64, ptr %33, align 8, !tbaa !32
  %35 = add nsw i64 7, %34
  %36 = load ptr, ptr %6, align 8, !tbaa !46
  store i64 %35, ptr %36, align 8, !tbaa !3
  call void @llvm.lifetime.end.p0(i64 8, ptr %7) #8
  ret i32 0
}