; Function Attrs: mustprogress nofree norecurse nosync nounwind willreturn memory(read, argmem: readwrite, inaccessiblemem: none) uwtable
define noundef i32 @SUNMatSpace_Band(ptr noundef readonly captures(none) %0, ptr noundef writeonly captures(none) initializes((0, 8)) %1, ptr noundef writeonly captures(none) initializes((0, 8)) %2) #6 {
  %4 = load ptr, ptr %0, align 8, !tbaa !20
  %5 = getelementptr inbounds nuw i8, ptr %4, i64 8
  %6 = load i64, ptr %5, align 8, !tbaa !26
  %7 = getelementptr inbounds nuw i8, ptr %4, i64 40
  %8 = load i64, ptr %7, align 8, !tbaa !29
  %9 = getelementptr inbounds nuw i8, ptr %4, i64 32
  %10 = load i64, ptr %9, align 8, !tbaa !28
  %11 = add i64 %8, 1
  %12 = add i64 %11, %10
  %13 = mul nsw i64 %12, %6
  store i64 %13, ptr %1, align 8, !tbaa !38
  %14 = load i64, ptr %5, align 8, !tbaa !26
  %15 = add nsw i64 %14, 7
  store i64 %15, ptr %2, align 8, !tbaa !38
  ret i32 0
}